; ModuleID = '8/1309.c'
source_filename = "8/1309.c"
target datalayout = "e-m:e-p270:32:32-p271:32:32-p272:64:64-i64:64-f80:128-n8:16:32:64-S128"
target triple = "x86_64-pc-linux-gnu"

@a = dso_local global [100 x i32] zeroinitializer, align 16
@b = dso_local global [100 x i32] zeroinitializer, align 16
@c = dso_local global [200 x i32] zeroinitializer, align 16
@.str = private unnamed_addr constant [6 x i8] c"%d %d\00", align 1
@n1 = common dso_local global i32 0, align 4
@n2 = common dso_local global i32 0, align 4
@.str.1 = private unnamed_addr constant [3 x i8] c"%d\00", align 1
@i = common dso_local global i32 0, align 4
@.str.2 = private unnamed_addr constant [4 x i8] c" %d\00", align 1

; Function Attrs: noinline nounwind uwtable
define dso_local void @scanfing() #0 {
  %1 = call i32 (i8*, ...) @__isoc99_scanf(i8* getelementptr inbounds ([6 x i8], [6 x i8]* @.str, i64 0, i64 0), i32* @n1, i32* @n2)
  %2 = call i32 (i8*, ...) @__isoc99_scanf(i8* getelementptr inbounds ([3 x i8], [3 x i8]* @.str.1, i64 0, i64 0), i32* getelementptr inbounds ([100 x i32], [100 x i32]* @a, i64 0, i64 0))
  store i32 1, i32* @i, align 4
  br label %3

3:                                                ; preds = %12, %0
  %4 = load i32, i32* @i, align 4
  %5 = load i32, i32* @n1, align 4
  %6 = icmp slt i32 %4, %5
  br i1 %6, label %7, label %15

7:                                                ; preds = %3
  %8 = load i32, i32* @i, align 4
  %9 = sext i32 %8 to i64
  %10 = getelementptr inbounds [100 x i32], [100 x i32]* @a, i64 0, i64 %9
  %11 = call i32 (i8*, ...) @__isoc99_scanf(i8* getelementptr inbounds ([4 x i8], [4 x i8]* @.str.2, i64 0, i64 0), i32* %10)
  br label %12

12:                                               ; preds = %7
  %13 = load i32, i32* @i, align 4
  %14 = add nsw i32 %13, 1
  store i32 %14, i32* @i, align 4
  br label %3

15:                                               ; preds = %3
  %16 = call i32 (i8*, ...) @__isoc99_scanf(i8* getelementptr inbounds ([3 x i8], [3 x i8]* @.str.1, i64 0, i64 0), i32* getelementptr inbounds ([100 x i32], [100 x i32]* @b, i64 0, i64 0))
  store i32 1, i32* @i, align 4
  br label %17

17:                                               ; preds = %26, %15
  %18 = load i32, i32* @i, align 4
  %19 = load i32, i32* @n2, align 4
  %20 = icmp slt i32 %18, %19
  br i1 %20, label %21, label %29

21:                                               ; preds = %17
  %22 = load i32, i32* @i, align 4
  %23 = sext i32 %22 to i64
  %24 = getelementptr inbounds [100 x i32], [100 x i32]* @b, i64 0, i64 %23
  %25 = call i32 (i8*, ...) @__isoc99_scanf(i8* getelementptr inbounds ([4 x i8], [4 x i8]* @.str.2, i64 0, i64 0), i32* %24)
  br label %26

26:                                               ; preds = %21
  %27 = load i32, i32* @i, align 4
  %28 = add nsw i32 %27, 1
  store i32 %28, i32* @i, align 4
  br label %17

29:                                               ; preds = %17
  ret void
}

declare dso_local i32 @__isoc99_scanf(i8*, ...) #1

; Function Attrs: noinline nounwind uwtable
define dso_local i32 @compare(i8* %0, i8* %1) #0 {
  %3 = alloca i8*, align 8
  %4 = alloca i8*, align 8
  store i8* %0, i8** %3, align 8
  store i8* %1, i8** %4, align 8
  %5 = load i8*, i8** %3, align 8
  %6 = bitcast i8* %5 to i32*
  %7 = load i32, i32* %6, align 4
  %8 = load i8*, i8** %4, align 8
  %9 = bitcast i8* %8 to i32*
  %10 = load i32, i32* %9, align 4
  %11 = sub nsw i32 %7, %10
  ret i32 %11
}

; Function Attrs: noinline nounwind uwtable
define dso_local void @qsorting() #0 {
  %1 = load i32, i32* @n1, align 4
  %2 = sext i32 %1 to i64
  call void @qsort(i8* bitcast ([100 x i32]* @a to i8*), i64 %2, i64 4, i32 (i8*, i8*)* @compare)
  %3 = load i32, i32* @n2, align 4
  %4 = sext i32 %3 to i64
  call void @qsort(i8* bitcast ([100 x i32]* @b to i8*), i64 %4, i64 4, i32 (i8*, i8*)* @compare)
  ret void
}

declare dso_local void @qsort(i8*, i64, i64, i32 (i8*, i8*)*) #1

; Function Attrs: noinline nounwind uwtable
define dso_local void @together() #0 {
  store i32 0, i32* @i, align 4
  br label %1

1:                                                ; preds = %13, %0
  %2 = load i32, i32* @i, align 4
  %3 = load i32, i32* @n1, align 4
  %4 = icmp slt i32 %2, %3
  br i1 %4, label %5, label %16

5:                                                ; preds = %1
  %6 = load i32, i32* @i, align 4
  %7 = sext i32 %6 to i64
  %8 = getelementptr inbounds [100 x i32], [100 x i32]* @a, i64 0, i64 %7
  %9 = load i32, i32* %8, align 4
  %10 = load i32, i32* @i, align 4
  %11 = sext i32 %10 to i64
  %12 = getelementptr inbounds [200 x i32], [200 x i32]* @c, i64 0, i64 %11
  store i32 %9, i32* %12, align 4
  br label %13

13:                                               ; preds = %5
  %14 = load i32, i32* @i, align 4
  %15 = add nsw i32 %14, 1
  store i32 %15, i32* @i, align 4
  br label %1

16:                                               ; preds = %1
  store i32 0, i32* @i, align 4
  br label %17

17:                                               ; preds = %31, %16
  %18 = load i32, i32* @i, align 4
  %19 = load i32, i32* @n2, align 4
  %20 = icmp slt i32 %18, %19
  br i1 %20, label %21, label %34

21:                                               ; preds = %17
  %22 = load i32, i32* @i, align 4
  %23 = sext i32 %22 to i64
  %24 = getelementptr inbounds [100 x i32], [100 x i32]* @b, i64 0, i64 %23
  %25 = load i32, i32* %24, align 4
  %26 = load i32, i32* @i, align 4
  %27 = load i32, i32* @n1, align 4
  %28 = add nsw i32 %26, %27
  %29 = sext i32 %28 to i64
  %30 = getelementptr inbounds [200 x i32], [200 x i32]* @c, i64 0, i64 %29
  store i32 %25, i32* %30, align 4
  br label %31

31:                                               ; preds = %21
  %32 = load i32, i32* @i, align 4
  %33 = add nsw i32 %32, 1
  store i32 %33, i32* @i, align 4
  br label %17

34:                                               ; preds = %17
  ret void
}

; Function Attrs: noinline nounwind uwtable
define dso_local void @printfing() #0 {
  %1 = load i32, i32* getelementptr inbounds ([200 x i32], [200 x i32]* @c, i64 0, i64 0), align 16
  %2 = call i32 (i8*, ...) @printf(i8* getelementptr inbounds ([3 x i8], [3 x i8]* @.str.1, i64 0, i64 0), i32 %1)
  store i32 1, i32* @i, align 4
  br label %3

3:                                                ; preds = %15, %0
  %4 = load i32, i32* @i, align 4
  %5 = load i32, i32* @n1, align 4
  %6 = load i32, i32* @n2, align 4
  %7 = add nsw i32 %5, %6
  %8 = icmp slt i32 %4, %7
  br i1 %8, label %9, label %18

9:                                                ; preds = %3
  %10 = load i32, i32* @i, align 4
  %11 = sext i32 %10 to i64
  %12 = getelementptr inbounds [200 x i32], [200 x i32]* @c, i64 0, i64 %11
  %13 = load i32, i32* %12, align 4
  %14 = call i32 (i8*, ...) @printf(i8* getelementptr inbounds ([4 x i8], [4 x i8]* @.str.2, i64 0, i64 0), i32 %13)
  br label %15

15:                                               ; preds = %9
  %16 = load i32, i32* @i, align 4
  %17 = add nsw i32 %16, 1
  store i32 %17, i32* @i, align 4
  br label %3

18:                                               ; preds = %3
  ret void
}

declare dso_local i32 @printf(i8*, ...) #1

; Function Attrs: noinline nounwind uwtable
define dso_local i32 @main() #0 {
  call void @scanfing()
  call void @qsorting()
  call void @together()
  call void @printfing()
  ret i32 0
}


!llvm.module.flags = !{!0}
!llvm.ident = !{!1}

!0 = !{i32 1, !"wchar_size", i32 4}
!1 = !{!"clang version 10.0.0-4ubuntu1 "}
