; ModuleID = 'source-C-CXX/7/1309.c'
source_filename = "source-C-CXX/7/1309.c"
target datalayout = "e-m:e-p270:32:32-p271:32:32-p272:64:64-i64:64-f80:128-n8:16:32:64-S128"
target triple = "x86_64-pc-linux-gnu"

@a = dso_local global [100 x i32] zeroinitializer, align 16
@b = dso_local global [100 x i32] zeroinitializer, align 16
@c = dso_local local_unnamed_addr global [200 x i32] zeroinitializer, align 16
@.str = private unnamed_addr constant [6 x i8] c"%d %d\00", align 1
@n1 = dso_local global i32 0, align 4
@n2 = dso_local global i32 0, align 4
@.str.1 = private unnamed_addr constant [3 x i8] c"%d\00", align 1
@i = dso_local local_unnamed_addr global i32 0, align 4
@.str.2 = private unnamed_addr constant [4 x i8] c" %d\00", align 1

; Function Attrs: nofree nounwind sspstrong uwtable
define dso_local void @scanfing() local_unnamed_addr #0 {
  %1 = tail call i32 (i8*, ...) @__isoc99_scanf(i8* getelementptr inbounds ([6 x i8], [6 x i8]* @.str, i64 0, i64 0), i32* nonnull @n1, i32* nonnull @n2)
  %2 = tail call i32 (i8*, ...) @__isoc99_scanf(i8* getelementptr inbounds ([3 x i8], [3 x i8]* @.str.1, i64 0, i64 0), i32* getelementptr inbounds ([100 x i32], [100 x i32]* @a, i64 0, i64 0))
  store i32 1, i32* @i, align 4, !tbaa !5
  %3 = load i32, i32* @n1, align 4, !tbaa !5
  %4 = icmp sgt i32 %3, 1
  br i1 %4, label %5, label %14

5:                                                ; preds = %0, %5
  %6 = phi i32 [ %11, %5 ], [ 1, %0 ]
  %7 = sext i32 %6 to i64
  %8 = getelementptr inbounds [100 x i32], [100 x i32]* @a, i64 0, i64 %7
  %9 = tail call i32 (i8*, ...) @__isoc99_scanf(i8* getelementptr inbounds ([4 x i8], [4 x i8]* @.str.2, i64 0, i64 0), i32* nonnull %8)
  %10 = load i32, i32* @i, align 4, !tbaa !5
  %11 = add nsw i32 %10, 1
  store i32 %11, i32* @i, align 4, !tbaa !5
  %12 = load i32, i32* @n1, align 4, !tbaa !5
  %13 = icmp slt i32 %11, %12
  br i1 %13, label %5, label %14, !llvm.loop !9

14:                                               ; preds = %5, %0
  %15 = tail call i32 (i8*, ...) @__isoc99_scanf(i8* getelementptr inbounds ([3 x i8], [3 x i8]* @.str.1, i64 0, i64 0), i32* getelementptr inbounds ([100 x i32], [100 x i32]* @b, i64 0, i64 0))
  store i32 1, i32* @i, align 4, !tbaa !5
  %16 = load i32, i32* @n2, align 4, !tbaa !5
  %17 = icmp sgt i32 %16, 1
  br i1 %17, label %18, label %27

18:                                               ; preds = %14, %18
  %19 = phi i32 [ %24, %18 ], [ 1, %14 ]
  %20 = sext i32 %19 to i64
  %21 = getelementptr inbounds [100 x i32], [100 x i32]* @b, i64 0, i64 %20
  %22 = tail call i32 (i8*, ...) @__isoc99_scanf(i8* getelementptr inbounds ([4 x i8], [4 x i8]* @.str.2, i64 0, i64 0), i32* nonnull %21)
  %23 = load i32, i32* @i, align 4, !tbaa !5
  %24 = add nsw i32 %23, 1
  store i32 %24, i32* @i, align 4, !tbaa !5
  %25 = load i32, i32* @n2, align 4, !tbaa !5
  %26 = icmp slt i32 %24, %25
  br i1 %26, label %18, label %27, !llvm.loop !11

27:                                               ; preds = %18, %14
  ret void
}

; Function Attrs: nofree nounwind
declare noundef i32 @__isoc99_scanf(i8* nocapture noundef readonly, ...) local_unnamed_addr #1

; Function Attrs: mustprogress nofree norecurse nosync nounwind readonly sspstrong uwtable willreturn
define dso_local i32 @compare(i8* nocapture readonly %0, i8* nocapture readonly %1) #2 {
  %3 = bitcast i8* %0 to i32*
  %4 = load i32, i32* %3, align 4, !tbaa !5
  %5 = bitcast i8* %1 to i32*
  %6 = load i32, i32* %5, align 4, !tbaa !5
  %7 = sub nsw i32 %4, %6
  ret i32 %7
}

; Function Attrs: nofree nounwind sspstrong uwtable
define dso_local void @qsorting() local_unnamed_addr #0 {
  %1 = load i32, i32* @n1, align 4, !tbaa !5
  %2 = sext i32 %1 to i64
  tail call void @qsort(i8* bitcast ([100 x i32]* @a to i8*), i64 %2, i64 4, i32 (i8*, i8*)* nonnull @compare) #6
  %3 = load i32, i32* @n2, align 4, !tbaa !5
  %4 = sext i32 %3 to i64
  tail call void @qsort(i8* bitcast ([100 x i32]* @b to i8*), i64 %4, i64 4, i32 (i8*, i8*)* nonnull @compare) #6
  ret void
}

; Function Attrs: nofree
declare void @qsort(i8* noundef, i64 noundef, i64 noundef, i32 (i8*, i8*)* nocapture noundef) local_unnamed_addr #3

; Function Attrs: nofree norecurse nosync nounwind sspstrong uwtable
define dso_local void @together() local_unnamed_addr #4 {
  %1 = load i32, i32* @n1, align 4, !tbaa !5
  %2 = icmp sgt i32 %1, 0
  br i1 %2, label %3, label %6

3:                                                ; preds = %0
  %4 = zext i32 %1 to i64
  %5 = shl nuw nsw i64 %4, 2
  call void @llvm.memcpy.p0i8.p0i8.i64(i8* align 16 bitcast ([200 x i32]* @c to i8*), i8* align 16 bitcast ([100 x i32]* @a to i8*), i64 %5, i1 false)
  br label %6

6:                                                ; preds = %3, %0
  %7 = load i32, i32* @n2, align 4, !tbaa !5
  %8 = icmp sgt i32 %7, 0
  br i1 %8, label %9, label %15

9:                                                ; preds = %6
  %10 = sext i32 %1 to i64
  %11 = getelementptr [200 x i32], [200 x i32]* @c, i64 0, i64 %10
  %12 = bitcast i32* %11 to i8*
  %13 = zext i32 %7 to i64
  %14 = shl nuw nsw i64 %13, 2
  call void @llvm.memcpy.p0i8.p0i8.i64(i8* align 4 %12, i8* align 16 bitcast ([100 x i32]* @b to i8*), i64 %14, i1 false)
  br label %15

15:                                               ; preds = %9, %6
  %16 = phi i32 [ 0, %6 ], [ %7, %9 ]
  store i32 %16, i32* @i, align 4, !tbaa !5
  ret void
}

; Function Attrs: nofree nounwind sspstrong uwtable
define dso_local void @printfing() local_unnamed_addr #0 {
  %1 = load i32, i32* getelementptr inbounds ([200 x i32], [200 x i32]* @c, i64 0, i64 0), align 16, !tbaa !5
  %2 = tail call i32 (i8*, ...) @printf(i8* nonnull dereferenceable(1) getelementptr inbounds ([3 x i8], [3 x i8]* @.str.1, i64 0, i64 0), i32 %1)
  store i32 1, i32* @i, align 4, !tbaa !5
  %3 = load i32, i32* @n1, align 4, !tbaa !5
  %4 = load i32, i32* @n2, align 4, !tbaa !5
  %5 = add nsw i32 %4, %3
  %6 = icmp sgt i32 %5, 1
  br i1 %6, label %7, label %19

7:                                                ; preds = %0, %7
  %8 = phi i32 [ %14, %7 ], [ 1, %0 ]
  %9 = sext i32 %8 to i64
  %10 = getelementptr inbounds [200 x i32], [200 x i32]* @c, i64 0, i64 %9
  %11 = load i32, i32* %10, align 4, !tbaa !5
  %12 = tail call i32 (i8*, ...) @printf(i8* nonnull dereferenceable(1) getelementptr inbounds ([4 x i8], [4 x i8]* @.str.2, i64 0, i64 0), i32 %11)
  %13 = load i32, i32* @i, align 4, !tbaa !5
  %14 = add nsw i32 %13, 1
  store i32 %14, i32* @i, align 4, !tbaa !5
  %15 = load i32, i32* @n1, align 4, !tbaa !5
  %16 = load i32, i32* @n2, align 4, !tbaa !5
  %17 = add nsw i32 %16, %15
  %18 = icmp slt i32 %14, %17
  br i1 %18, label %7, label %19, !llvm.loop !12

19:                                               ; preds = %7, %0
  ret void
}

; Function Attrs: nofree nounwind
declare noundef i32 @printf(i8* nocapture noundef readonly, ...) local_unnamed_addr #1

; Function Attrs: nofree nounwind sspstrong uwtable
define dso_local i32 @main() local_unnamed_addr #0 {
  tail call void @scanfing()
  %1 = load i32, i32* @n1, align 4, !tbaa !5
  %2 = sext i32 %1 to i64
  tail call void @qsort(i8* bitcast ([100 x i32]* @a to i8*), i64 %2, i64 4, i32 (i8*, i8*)* nonnull @compare) #6
  %3 = load i32, i32* @n2, align 4, !tbaa !5
  %4 = sext i32 %3 to i64
  tail call void @qsort(i8* bitcast ([100 x i32]* @b to i8*), i64 %4, i64 4, i32 (i8*, i8*)* nonnull @compare) #6
  %5 = load i32, i32* @n1, align 4, !tbaa !5
  %6 = icmp sgt i32 %5, 0
  br i1 %6, label %7, label %10

7:                                                ; preds = %0
  %8 = zext i32 %5 to i64
  %9 = shl nuw nsw i64 %8, 2
  tail call void @llvm.memcpy.p0i8.p0i8.i64(i8* align 16 bitcast ([200 x i32]* @c to i8*), i8* align 16 bitcast ([100 x i32]* @a to i8*), i64 %9, i1 false) #6
  br label %10

10:                                               ; preds = %7, %0
  %11 = load i32, i32* @n2, align 4, !tbaa !5
  %12 = icmp sgt i32 %11, 0
  br i1 %12, label %13, label %19

13:                                               ; preds = %10
  %14 = sext i32 %5 to i64
  %15 = getelementptr [200 x i32], [200 x i32]* @c, i64 0, i64 %14
  %16 = bitcast i32* %15 to i8*
  %17 = zext i32 %11 to i64
  %18 = shl nuw nsw i64 %17, 2
  tail call void @llvm.memcpy.p0i8.p0i8.i64(i8* align 4 %16, i8* align 16 bitcast ([100 x i32]* @b to i8*), i64 %18, i1 false) #6
  br label %19

19:                                               ; preds = %10, %13
  %20 = phi i32 [ 0, %10 ], [ %11, %13 ]
  store i32 %20, i32* @i, align 4, !tbaa !5
  %21 = load i32, i32* getelementptr inbounds ([200 x i32], [200 x i32]* @c, i64 0, i64 0), align 16, !tbaa !5
  %22 = tail call i32 (i8*, ...) @printf(i8* nonnull dereferenceable(1) getelementptr inbounds ([3 x i8], [3 x i8]* @.str.1, i64 0, i64 0), i32 %21) #6
  store i32 1, i32* @i, align 4, !tbaa !5
  %23 = load i32, i32* @n1, align 4, !tbaa !5
  %24 = load i32, i32* @n2, align 4, !tbaa !5
  %25 = add nsw i32 %24, %23
  %26 = icmp sgt i32 %25, 1
  br i1 %26, label %27, label %39

27:                                               ; preds = %19, %27
  %28 = phi i32 [ %34, %27 ], [ 1, %19 ]
  %29 = sext i32 %28 to i64
  %30 = getelementptr inbounds [200 x i32], [200 x i32]* @c, i64 0, i64 %29
  %31 = load i32, i32* %30, align 4, !tbaa !5
  %32 = tail call i32 (i8*, ...) @printf(i8* nonnull dereferenceable(1) getelementptr inbounds ([4 x i8], [4 x i8]* @.str.2, i64 0, i64 0), i32 %31) #6
  %33 = load i32, i32* @i, align 4, !tbaa !5
  %34 = add nsw i32 %33, 1
  store i32 %34, i32* @i, align 4, !tbaa !5
  %35 = load i32, i32* @n1, align 4, !tbaa !5
  %36 = load i32, i32* @n2, align 4, !tbaa !5
  %37 = add nsw i32 %36, %35
  %38 = icmp slt i32 %34, %37
  br i1 %38, label %27, label %39, !llvm.loop !12

39:                                               ; preds = %27, %19
  ret i32 0
}

; Function Attrs: argmemonly nofree nounwind willreturn
declare void @llvm.memcpy.p0i8.p0i8.i64(i8* noalias nocapture writeonly, i8* noalias nocapture readonly, i64, i1 immarg) #5


!llvm.module.flags = !{!0, !1, !2, !3}
!llvm.ident = !{!4}

!0 = !{i32 1, !"wchar_size", i32 4}
!1 = !{i32 7, !"PIC Level", i32 2}
!2 = !{i32 7, !"PIE Level", i32 2}
!3 = !{i32 7, !"uwtable", i32 1}
!4 = !{!"clang version 13.0.0"}
!5 = !{!6, !6, i64 0}
!6 = !{!"int", !7, i64 0}
!7 = !{!"omnipotent char", !8, i64 0}
!8 = !{!"Simple C/C++ TBAA"}
!9 = distinct !{!9, !10}
!10 = !{!"llvm.loop.mustprogress"}
!11 = distinct !{!11, !10}
!12 = distinct !{!12, !10}
